target datalayout = "e-m:e-p270:32:32-p271:32:32-p272:64:64-i64:64-i128:128-f80:128-n8:16:32:64-S128"
target triple = "x86_64-pc-linux-gnu"

%struct.test_fixture = type { ptr, ptr, ptr, i32, i32, ptr }

@client_cert = internal global ptr null, align 8
@.str.14 = private unnamed_addr constant [34 x i8] c"../openssl/test/cmp_client_test.c\00", align 1
@.str.53 = private unnamed_addr constant [23 x i8] c"test_exchange_certConf\00", align 1
@.str.65 = private unnamed_addr constant [18 x i8] c"fixture->expected\00", align 1
@.str.67 = private unnamed_addr constant [4 x i8] c"res\00", align 1
@.str.87 = private unnamed_addr constant [8 x i8] c"abcdefg\00", align 1

; Function Attrs: inlinehint nounwind uwtable
define internal ptr @ossl_check_X509_sk_type(ptr noundef %0) #3 {
  %2 = alloca ptr, align 8
  store ptr %0, ptr %2, align 8, !tbaa !32
  %3 = load ptr, ptr %2, align 8, !tbaa !32
  ret ptr %3
}

; Function Attrs: nounwind uwtable
define internal i32 @execute_exchange_certConf_test(ptr noundef %0) #0 {
  %2 = alloca ptr, align 8
  %3 = alloca i32, align 4
  store ptr %0, ptr %2, align 8, !tbaa !17
  call void @llvm.lifetime.start.p0(i64 4, ptr %3) #4
  %4 = load ptr, ptr %2, align 8, !tbaa !17
  %5 = getelementptr inbounds nuw %struct.test_fixture, ptr %4, i32 0, i32 1
  %6 = load ptr, ptr %5, align 8, !tbaa !29
  %7 = call i32 @ossl_cmp_exchange_certConf(ptr noundef %6, i32 noundef 0, i32 noundef 17, ptr noundef @.str.87)
  store i32 %7, ptr %3, align 4, !tbaa !19
  %8 = load ptr, ptr %2, align 8, !tbaa !17
  %9 = getelementptr inbounds nuw %struct.test_fixture, ptr %8, i32 0, i32 4
  %10 = load i32, ptr %9, align 4, !tbaa !26
  %11 = load i32, ptr %3, align 4, !tbaa !19
  %12 = call i32 @test_int_eq(ptr noundef @.str.14, i32 noundef 476, ptr noundef @.str.65, ptr noundef @.str.67, i32 noundef %10, i32 noundef %11)
  call void @llvm.lifetime.end.p0(i64 4, ptr %3) #4
  ret i32 %12
}

; Function Attrs: nounwind uwtable
define internal void @tear_down(ptr noundef %0) #0 {
  %2 = alloca ptr, align 8
  store ptr %0, ptr %2, align 8, !tbaa !17
  %3 = load ptr, ptr %2, align 8, !tbaa !17
  %4 = getelementptr inbounds nuw %struct.test_fixture, ptr %3, i32 0, i32 1
  %5 = load ptr, ptr %4, align 8, !tbaa !29
  call void @OSSL_CMP_CTX_free(ptr noundef %5)
  %6 = load ptr, ptr %2, align 8, !tbaa !17
  %7 = getelementptr inbounds nuw %struct.test_fixture, ptr %6, i32 0, i32 2
  %8 = load ptr, ptr %7, align 8, !tbaa !21
  call void @ossl_cmp_mock_srv_free(ptr noundef %8)
  %9 = load ptr, ptr %2, align 8, !tbaa !17
  %10 = getelementptr inbounds nuw %struct.test_fixture, ptr %9, i32 0, i32 5
  %11 = load ptr, ptr %10, align 8, !tbaa !28
  %12 = call ptr @ossl_check_X509_sk_type(ptr noundef %11)
  call void @OPENSSL_sk_free(ptr noundef %12)
  %13 = load ptr, ptr %2, align 8, !tbaa !17
  call void @CRYPTO_free(ptr noundef %13, ptr noundef @.str.14, i32 noundef 51)
  ret void
}

; Function Attrs: nounwind uwtable
define internal i32 @test_exchange_certConf() #0 {
  %1 = alloca i32, align 4
  %2 = alloca ptr, align 8
  %3 = alloca i32, align 4
  %4 = alloca i32, align 4
  call void @llvm.lifetime.start.p0(i64 8, ptr %2) #4
  %5 = call ptr @set_up(ptr noundef @.str.53)
  store ptr %5, ptr %2, align 8, !tbaa !17
  call void @llvm.lifetime.start.p0(i64 4, ptr %3) #4
  store i32 0, ptr %3, align 4, !tbaa !19
  %6 = load ptr, ptr %2, align 8, !tbaa !17
  %7 = icmp eq ptr %6, null
  br i1 %7, label %8, label %9

8:                                                ; preds = %0
  store i32 0, ptr %1, align 4
  store i32 1, ptr %4, align 4
  br label %30

9:                                                ; preds = %0
  %10 = load ptr, ptr %2, align 8, !tbaa !17
  %11 = getelementptr inbounds nuw %struct.test_fixture, ptr %10, i32 0, i32 4
  store i32 0, ptr %11, align 4, !tbaa !26
  %12 = load ptr, ptr %2, align 8, !tbaa !17
  %13 = getelementptr inbounds nuw %struct.test_fixture, ptr %12, i32 0, i32 1
  %14 = load ptr, ptr %13, align 8, !tbaa !29
  %15 = load ptr, ptr @client_cert, align 8, !tbaa !4
  %16 = call ptr @X509_dup(ptr noundef %15)
  %17 = call i32 @ossl_cmp_ctx_set0_newCert(ptr noundef %14, ptr noundef %16)
  %18 = icmp ne i32 %17, 0
  br i1 %18, label %21, label %19

19:                                               ; preds = %9
  %20 = load ptr, ptr %2, align 8, !tbaa !17
  call void @tear_down(ptr noundef %20)
  store ptr null, ptr %2, align 8, !tbaa !17
  br label %21

21:                                               ; preds = %19, %9
  %22 = load ptr, ptr %2, align 8, !tbaa !17
  %23 = icmp ne ptr %22, null
  br i1 %23, label %24, label %28

24:                                               ; preds = %21
  %25 = load ptr, ptr %2, align 8, !tbaa !17
  %26 = call i32 @execute_exchange_certConf_test(ptr noundef %25)
  store i32 %26, ptr %3, align 4, !tbaa !19
  %27 = load ptr, ptr %2, align 8, !tbaa !17
  call void @tear_down(ptr noundef %27)
  br label %28

28:                                               ; preds = %24, %21
  %29 = load i32, ptr %3, align 4, !tbaa !19
  store i32 %29, ptr %1, align 4
  store i32 1, ptr %4, align 4
  br label %30

30:                                               ; preds = %28, %8
  call void @llvm.lifetime.end.p0(i64 4, ptr %3) #4
  call void @llvm.lifetime.end.p0(i64 8, ptr %2) #4
  %31 = load i32, ptr %1, align 4
  ret i32 %31
}