; Function Attrs: nounwind uwtable
define internal i32 @test_exchange_certConf() #0 {
  %1 = tail call fastcc ptr @set_up(ptr noundef nonnull @.str.53)
  %2 = icmp eq ptr %1, null
  br i1 %2, label %20, label %3

3:                                                ; preds = %0
  %4 = getelementptr inbounds nuw i8, ptr %1, i64 28
  store i32 0, ptr %4, align 4, !tbaa !17
  %5 = getelementptr inbounds nuw i8, ptr %1, i64 8
  %6 = load ptr, ptr %5, align 8, !tbaa !23
  %7 = load ptr, ptr @client_cert, align 8, !tbaa !4
  %8 = tail call ptr @X509_dup(ptr noundef %7) #4
  %9 = tail call i32 @ossl_cmp_ctx_set0_newCert(ptr noundef %6, ptr noundef %8) #4
  %.not = icmp eq i32 %9, 0
  %10 = load ptr, ptr %5, align 8, !tbaa !23
  br i1 %.not, label %.sink.split, label %11

11:                                               ; preds = %3
  %12 = tail call i32 @ossl_cmp_exchange_certConf(ptr noundef %10, i32 noundef 0, i32 noundef 17, ptr noundef nonnull @.str.87) #4
  %13 = load i32, ptr %4, align 4, !tbaa !17
  %14 = tail call i32 @test_int_eq(ptr noundef nonnull @.str.14, i32 noundef 476, ptr noundef nonnull @.str.65, ptr noundef nonnull @.str.67, i32 noundef %13, i32 noundef %12) #4
  %15 = load ptr, ptr %5, align 8, !tbaa !23
  br label %.sink.split

.sink.split:                                      ; preds = %3, %11
  %.sink = phi ptr [ %15, %11 ], [ %10, %3 ]
  %.09.ph = phi i32 [ %14, %11 ], [ 0, %3 ]
  tail call void @OSSL_CMP_CTX_free(ptr noundef %.sink) #4
  %16 = getelementptr inbounds nuw i8, ptr %1, i64 16
  %17 = load ptr, ptr %16, align 8, !tbaa !24
  tail call void @ossl_cmp_mock_srv_free(ptr noundef %17) #4
  %18 = getelementptr inbounds nuw i8, ptr %1, i64 32
  %19 = load ptr, ptr %18, align 8, !tbaa !25
  tail call void @OPENSSL_sk_free(ptr noundef %19) #4
  tail call void @CRYPTO_free(ptr noundef nonnull %1, ptr noundef nonnull @.str.14, i32 noundef 51) #4
  br label %20

20:                                               ; preds = %.sink.split, %0
  %.09 = phi i32 [ 0, %0 ], [ %.09.ph, %.sink.split ]
  ret i32 %.09
}